; Function Attrs: mustprogress uwtable
define void @_ZN3gmx27DensityFittingForceProviderC2ERKNS_24DensityFittingParametersENS_12basic_mdspanIKfNS_7extentsIJLln1ELln1ELln1EEEENS_12layout_rightENS_14accessor_basicIS5_EEEERKNS_17TranslateAndScaleERKNS_12LocalAtomSetE7PbcTypedRKNS_32DensityFittingForceProviderStateE(ptr noundef nonnull writeonly align 8 captures(none) dereferenceable(16) initializes((0, 8)) %0, ptr noundef nonnull align 8 dereferenceable(136) %1, ptr noundef readonly byval(%"class.gmx::basic_mdspan.85") align 8 captures(none) %2, ptr noundef nonnull align 8 dereferenceable(8) %3, ptr noundef nonnull align 8 dereferenceable(8) %4, i32 noundef %5, double noundef %6, ptr noundef nonnull align 8 dereferenceable(24) %7) unnamed_addr #0 align 2 personality ptr @__gxx_personality_v0 {
  store ptr getelementptr inbounds nuw inrange(-16, 8) (i8, ptr @_ZTVN3gmx27DensityFittingForceProviderE, i64 16), ptr %0, align 8, !tbaa !33
  %9 = tail call noalias noundef nonnull dereferenceable(304) ptr @_Znwm(i64 noundef 304) #30
  invoke void @_ZN3gmx27DensityFittingForceProvider4ImplC1ERKNS_24DensityFittingParametersENS_12basic_mdspanIKfNS_7extentsIJLln1ELln1ELln1EEEENS_12layout_rightENS_14accessor_basicIS6_EEEERKNS_17TranslateAndScaleERKNS_12LocalAtomSetE7PbcTypedRKNS_32DensityFittingForceProviderStateE(ptr noundef nonnull align 8 dereferenceable(304) %9, ptr noundef nonnull align 8 dereferenceable(136) %1, ptr noundef nonnull byval(%"class.gmx::basic_mdspan.85") align 8 %2, ptr noundef nonnull align 8 dereferenceable(8) %3, ptr noundef nonnull align 8 dereferenceable(8) %4, i32 noundef %5, double noundef %6, ptr noundef nonnull align 8 dereferenceable(24) %7)
          to label %10 unwind label %12

10:                                               ; preds = %8
  %11 = getelementptr inbounds nuw i8, ptr %0, i64 8
  store ptr %9, ptr %11, align 8, !tbaa !4
  ret void

12:                                               ; preds = %8
  %13 = landingpad { ptr, i32 }
          cleanup
  tail call void @_ZdlPvm(ptr noundef nonnull %9, i64 noundef 304) #29
  resume { ptr, i32 } %13
}